
rover:     file format elf32-littleriscv


Disassembly of section .text:

000100b4 <main>:
   100b4:	f7010113          	addi	sp,sp,-144
   100b8:	80018323          	sb	zero,-2042(gp) # 12332 <calibrated>
   100bc:	08912223          	sw	s1,132(sp)
   100c0:	09212023          	sw	s2,128(sp)
   100c4:	800182a3          	sb	zero,-2043(gp) # 12331 <saved_vhv_init>
   100c8:	000124b7          	lui	s1,0x12
   100cc:	00012937          	lui	s2,0x12
   100d0:	01c10593          	addi	a1,sp,28
   100d4:	10f00513          	li	a0,271
   100d8:	08112623          	sw	ra,140(sp)
   100dc:	08812423          	sw	s0,136(sp)
   100e0:	07312e23          	sw	s3,124(sp)
   100e4:	07412c23          	sw	s4,120(sp)
   100e8:	07512a23          	sw	s5,116(sp)
   100ec:	07612823          	sw	s6,112(sp)
   100f0:	07712623          	sw	s7,108(sp)
   100f4:	07812423          	sw	s8,104(sp)
   100f8:	07912223          	sw	s9,100(sp)
   100fc:	07a12023          	sw	s10,96(sp)
   10100:	05b12e23          	sw	s11,92(sp)
   10104:	80018223          	sb	zero,-2044(gp) # 12330 <saved_vhv_timeout>
   10108:	32049723          	sh	zero,814(s1) # 1232e <fast_osc_frequency>
   1010c:	32091623          	sh	zero,812(s2) # 1232c <osc_calibrate_val>
   10110:	1ac010ef          	jal	112bc <vl53l1x_read16>
   10114:	00051863          	bnez	a0,10124 <main+0x70>
   10118:	ff100793          	li	a5,-15
   1011c:	02f01023          	sh	a5,32(zero) # 20 <main-0x10094>
   10120:	ffdff06f          	j	1011c <main+0x68>
   10124:	01c15703          	lhu	a4,28(sp)
   10128:	0000f7b7          	lui	a5,0xf
   1012c:	acc78793          	addi	a5,a5,-1332 # eacc <main-0x15e8>
   10130:	fef714e3          	bne	a4,a5,10118 <main+0x64>
   10134:	00000593          	li	a1,0
   10138:	00000513          	li	a0,0
   1013c:	060010ef          	jal	1119c <vl53l1x_write8>
   10140:	fc050ce3          	beqz	a0,10118 <main+0x64>
   10144:	06400513          	li	a0,100
   10148:	125000ef          	jal	10a6c <vl53l1x_default_delay_us>
   1014c:	00100593          	li	a1,1
   10150:	00000513          	li	a0,0
   10154:	048010ef          	jal	1119c <vl53l1x_write8>
   10158:	fc0500e3          	beqz	a0,10118 <main+0x64>
   1015c:	3e800513          	li	a0,1000
   10160:	00002437          	lui	s0,0x2
   10164:	109000ef          	jal	10a6c <vl53l1x_default_delay_us>
   10168:	71040413          	addi	s0,s0,1808 # 2710 <main-0xd9a4>
   1016c:	02010823          	sb	zero,48(sp)
   10170:	00100613          	li	a2,1
   10174:	03010593          	addi	a1,sp,48
   10178:	0e500513          	li	a0,229
   1017c:	084010ef          	jal	11200 <vl53l1x_read_multi>
   10180:	00050863          	beqz	a0,10190 <main+0xdc>
   10184:	03014783          	lbu	a5,48(sp)
   10188:	0017f793          	andi	a5,a5,1
   1018c:	46079063          	bnez	a5,105ec <main+0x538>
   10190:	06400513          	li	a0,100
   10194:	fff40413          	addi	s0,s0,-1
   10198:	0d5000ef          	jal	10a6c <vl53l1x_default_delay_us>
   1019c:	fc041ae3          	bnez	s0,10170 <main+0xbc>
   101a0:	f79ff06f          	j	10118 <main+0x64>
   101a4:	01f41613          	slli	a2,s0,0x1f
   101a8:	41f65693          	srai	a3,a2,0x1f
   101ac:	00e6f6b3          	and	a3,a3,a4
   101b0:	00d787b3          	add	a5,a5,a3
   101b4:	00171713          	slli	a4,a4,0x1
   101b8:	00145413          	srli	s0,s0,0x1
   101bc:	7840006f          	j	10940 <main+0x88c>
   101c0:	3dd000ef          	jal	10d9c <i2c_stop>
   101c4:	000504e3          	beqz	a0,109cc <main+0x918>
   101c8:	01810793          	addi	a5,sp,24
   101cc:	02f12823          	sw	a5,48(sp)
   101d0:	00200793          	li	a5,2
   101d4:	02f12c23          	sw	a5,56(sp)
   101d8:	00300793          	li	a5,3
   101dc:	02f12e23          	sw	a5,60(sp)
   101e0:	00400793          	li	a5,4
   101e4:	04f12023          	sw	a5,64(sp)
   101e8:	010107b7          	lui	a5,0x1010
   101ec:	04f12223          	sw	a5,68(sp)
   101f0:	b54b47b7          	lui	a5,0xb54b4
   101f4:	44678793          	addi	a5,a5,1094 # b54b4446 <__global_pointer$+0xb54a191a>
   101f8:	04f12423          	sw	a5,72(sp)
   101fc:	000057b7          	lui	a5,0x5
   10200:	bb578793          	addi	a5,a5,-1099 # 4bb5 <main-0xb4ff>
   10204:	00100a93          	li	s5,1
   10208:	03410513          	addi	a0,sp,52
   1020c:	04f11623          	sh	a5,76(sp)
   10210:	03512a23          	sw	s5,52(sp)
   10214:	7e0000ef          	jal	109f4 <rover_high_valid_map>
   10218:	ff600793          	li	a5,-10
   1021c:	00050e63          	beqz	a0,10238 <main+0x184>
   10220:	00000913          	li	s2,0
   10224:	00000a13          	li	s4,0
   10228:	00000993          	li	s3,0
   1022c:	00000493          	li	s1,0
   10230:	00010cb7          	lui	s9,0x10
   10234:	0840006f          	j	102b8 <main+0x204>
   10238:	02f01023          	sh	a5,32(zero) # 20 <main-0x10094>
   1023c:	ffdff06f          	j	10238 <main+0x184>
   10240:	00200913          	li	s2,2
   10244:	00000993          	li	s3,0
   10248:	0700006f          	j	102b8 <main+0x204>
   1024c:	000085b7          	lui	a1,0x8
   10250:	2080006f          	j	10458 <main+0x3a4>
   10254:	00000713          	li	a4,0
   10258:	00000693          	li	a3,0
   1025c:	00000613          	li	a2,0
   10260:	00000593          	li	a1,0
   10264:	01810513          	addi	a0,sp,24
   10268:	395000ef          	jal	10dfc <rover_set_motors.isra.0>
   1026c:	ff300793          	li	a5,-13
   10270:	02f01023          	sh	a5,32(zero) # 20 <main-0x10094>
   10274:	ffdff06f          	j	10270 <main+0x1bc>
   10278:	03010513          	addi	a0,sp,48
   1027c:	699000ef          	jal	11114 <rover_high_go_straight.isra.0>
   10280:	315b1c63          	bne	s6,s5,10598 <main+0x4e4>
   10284:	03401023          	sh	s4,32(zero) # 20 <main-0x10094>
   10288:	12b00793          	li	a5,299
   1028c:	0347f463          	bgeu	a5,s4,102b4 <main+0x200>
   10290:	0ff00793          	li	a5,255
   10294:	00f48a63          	beq	s1,a5,102a8 <main+0x1f4>
   10298:	00148493          	addi	s1,s1,1
   1029c:	0ff4f493          	zext.b	s1,s1
   102a0:	00200793          	li	a5,2
   102a4:	0097fa63          	bgeu	a5,s1,102b8 <main+0x204>
   102a8:	000a8913          	mv	s2,s5
   102ac:	00004437          	lui	s0,0x4
   102b0:	65040413          	addi	s0,s0,1616 # 4650 <main-0xba64>
   102b4:	00000493          	li	s1,0
   102b8:	00100613          	li	a2,1
   102bc:	01c10593          	addi	a1,sp,28
   102c0:	03100513          	li	a0,49
   102c4:	73d000ef          	jal	11200 <vl53l1x_read_multi>
   102c8:	f80506e3          	beqz	a0,10254 <main+0x1a0>
   102cc:	01c14783          	lbu	a5,28(sp)
   102d0:	00000b13          	li	s6,0
   102d4:	01f79713          	slli	a4,a5,0x1f
   102d8:	01f75793          	srli	a5,a4,0x1f
   102dc:	20079263          	bnez	a5,104e0 <main+0x42c>
   102e0:	01100613          	li	a2,17
   102e4:	01c10593          	addi	a1,sp,28
   102e8:	08900513          	li	a0,137
   102ec:	715000ef          	jal	11200 <vl53l1x_read_multi>
   102f0:	f60502e3          	beqz	a0,10254 <main+0x1a0>
   102f4:	01c14783          	lbu	a5,28(sp)
   102f8:	02014a03          	lbu	s4,32(sp)
   102fc:	02414b83          	lbu	s7,36(sp)
   10300:	00f12623          	sw	a5,12(sp)
   10304:	01f14783          	lbu	a5,31(sp)
   10308:	008a1a13          	slli	s4,s4,0x8
   1030c:	02a14b03          	lbu	s6,42(sp)
   10310:	00fa6a33          	or	s4,s4,a5
   10314:	02314783          	lbu	a5,35(sp)
   10318:	008b9b93          	slli	s7,s7,0x8
   1031c:	02c14c03          	lbu	s8,44(sp)
   10320:	00fbebb3          	or	s7,s7,a5
   10324:	02914783          	lbu	a5,41(sp)
   10328:	008b1b13          	slli	s6,s6,0x8
   1032c:	008c1c13          	slli	s8,s8,0x8
   10330:	00fb6b33          	or	s6,s6,a5
   10334:	02b14783          	lbu	a5,43(sp)
   10338:	00fc6c33          	or	s8,s8,a5
   1033c:	8061c783          	lbu	a5,-2042(gp) # 12332 <calibrated>
   10340:	08079863          	bnez	a5,103d0 <main+0x31c>
   10344:	00100613          	li	a2,1
   10348:	80518593          	addi	a1,gp,-2043 # 12331 <saved_vhv_init>
   1034c:	00b00513          	li	a0,11
   10350:	6b1000ef          	jal	11200 <vl53l1x_read_multi>
   10354:	f00500e3          	beqz	a0,10254 <main+0x1a0>
   10358:	00100613          	li	a2,1
   1035c:	80418593          	addi	a1,gp,-2044 # 12330 <saved_vhv_timeout>
   10360:	00800513          	li	a0,8
   10364:	69d000ef          	jal	11200 <vl53l1x_read_multi>
   10368:	ee0506e3          	beqz	a0,10254 <main+0x1a0>
   1036c:	8051c583          	lbu	a1,-2043(gp) # 12331 <saved_vhv_init>
   10370:	00b00513          	li	a0,11
   10374:	07f5f593          	andi	a1,a1,127
   10378:	625000ef          	jal	1119c <vl53l1x_write8>
   1037c:	ec050ce3          	beqz	a0,10254 <main+0x1a0>
   10380:	8041c583          	lbu	a1,-2044(gp) # 12330 <saved_vhv_timeout>
   10384:	00800513          	li	a0,8
   10388:	0035f593          	andi	a1,a1,3
   1038c:	00c58593          	addi	a1,a1,12 # 800c <main-0x80a8>
   10390:	60d000ef          	jal	1119c <vl53l1x_write8>
   10394:	ec0500e3          	beqz	a0,10254 <main+0x1a0>
   10398:	00100593          	li	a1,1
   1039c:	04d00513          	li	a0,77
   103a0:	5fd000ef          	jal	1119c <vl53l1x_write8>
   103a4:	ea0508e3          	beqz	a0,10254 <main+0x1a0>
   103a8:	00100613          	li	a2,1
   103ac:	01c10593          	addi	a1,sp,28
   103b0:	0d800513          	li	a0,216
   103b4:	64d000ef          	jal	11200 <vl53l1x_read_multi>
   103b8:	e8050ee3          	beqz	a0,10254 <main+0x1a0>
   103bc:	01c14583          	lbu	a1,28(sp)
   103c0:	04700513          	li	a0,71
   103c4:	5d9000ef          	jal	1119c <vl53l1x_write8>
   103c8:	e80506e3          	beqz	a0,10254 <main+0x1a0>
   103cc:	81518323          	sb	s5,-2042(gp) # 12332 <calibrated>
   103d0:	e60a0ee3          	beqz	s4,1024c <main+0x198>
   103d4:	008c5513          	srli	a0,s8,0x8
   103d8:	008bd793          	srli	a5,s7,0x8
   103dc:	008c1c13          	slli	s8,s8,0x8
   103e0:	008b9b93          	slli	s7,s7,0x8
   103e4:	01850533          	add	a0,a0,s8
   103e8:	017787b3          	add	a5,a5,s7
   103ec:	01051513          	slli	a0,a0,0x10
   103f0:	01079793          	slli	a5,a5,0x10
   103f4:	01055513          	srli	a0,a0,0x10
   103f8:	0107d793          	srli	a5,a5,0x10
   103fc:	00f50533          	add	a0,a0,a5
   10400:	01956463          	bltu	a0,s9,10408 <main+0x354>
   10404:	fffc8513          	addi	a0,s9,-1 # ffff <main-0xb5>
   10408:	008a5593          	srli	a1,s4,0x8
   1040c:	008a1a13          	slli	s4,s4,0x8
   10410:	014585b3          	add	a1,a1,s4
   10414:	01059593          	slli	a1,a1,0x10
   10418:	0105d593          	srli	a1,a1,0x10
   1041c:	00000613          	li	a2,0
   10420:	01051513          	slli	a0,a0,0x10
   10424:	66c000ef          	jal	10a90 <vl53l1x_divmod_u32_soft>
   10428:	00050593          	mv	a1,a0
   1042c:	e20500e3          	beqz	a0,1024c <main+0x198>
   10430:	00000613          	li	a2,0
   10434:	0a000537          	lui	a0,0xa000
   10438:	658000ef          	jal	10a90 <vl53l1x_divmod_u32_soft>
   1043c:	000105b7          	lui	a1,0x10
   10440:	fff58593          	addi	a1,a1,-1 # ffff <main-0xb5>
   10444:	00b535b3          	sltu	a1,a0,a1
   10448:	fff58593          	addi	a1,a1,-1
   1044c:	00a5e5b3          	or	a1,a1,a0
   10450:	01059593          	slli	a1,a1,0x10
   10454:	0105d593          	srli	a1,a1,0x10
   10458:	05400513          	li	a0,84
   1045c:	56d000ef          	jal	111c8 <vl53l1x_write16>
   10460:	de050ae3          	beqz	a0,10254 <main+0x1a0>
   10464:	008b5793          	srli	a5,s6,0x8
   10468:	008b1b13          	slli	s6,s6,0x8
   1046c:	016787b3          	add	a5,a5,s6
   10470:	01079793          	slli	a5,a5,0x10
   10474:	0107d793          	srli	a5,a5,0x10
   10478:	00179713          	slli	a4,a5,0x1
   1047c:	00f70a33          	add	s4,a4,a5
   10480:	40078693          	addi	a3,a5,1024
   10484:	009a1a13          	slli	s4,s4,0x9
   10488:	00da0a33          	add	s4,s4,a3
   1048c:	00879693          	slli	a3,a5,0x8
   10490:	00da0a33          	add	s4,s4,a3
   10494:	00779693          	slli	a3,a5,0x7
   10498:	00da0a33          	add	s4,s4,a3
   1049c:	00679693          	slli	a3,a5,0x6
   104a0:	00da0a33          	add	s4,s4,a3
   104a4:	00479693          	slli	a3,a5,0x4
   104a8:	00da0a33          	add	s4,s4,a3
   104ac:	00379793          	slli	a5,a5,0x3
   104b0:	00fa0a33          	add	s4,s4,a5
   104b4:	00ea0a33          	add	s4,s4,a4
   104b8:	005a1793          	slli	a5,s4,0x5
   104bc:	00100593          	li	a1,1
   104c0:	08600513          	li	a0,134
   104c4:	0107da13          	srli	s4,a5,0x10
   104c8:	4d5000ef          	jal	1119c <vl53l1x_write8>
   104cc:	d80504e3          	beqz	a0,10254 <main+0x1a0>
   104d0:	00c12783          	lw	a5,12(sp)
   104d4:	ff778b13          	addi	s6,a5,-9
   104d8:	01603b33          	snez	s6,s6
   104dc:	001b0b13          	addi	s6,s6,1
   104e0:	00400793          	li	a5,4
   104e4:	0f27e463          	bltu	a5,s2,105cc <main+0x518>
   104e8:	00011737          	lui	a4,0x11
   104ec:	00291793          	slli	a5,s2,0x2
   104f0:	31870713          	addi	a4,a4,792 # 11318 <_start+0x10>
   104f4:	00e787b3          	add	a5,a5,a4
   104f8:	0007a783          	lw	a5,0(a5)
   104fc:	00078067          	jr	a5
   10500:	fb500613          	li	a2,-75
   10504:	04b00593          	li	a1,75
   10508:	03010513          	addi	a0,sp,48
   1050c:	201000ef          	jal	10f0c <rover_high_drive.isra.0>
   10510:	ffff97b7          	lui	a5,0xffff9
   10514:	00178793          	addi	a5,a5,1 # ffff9001 <__global_pointer$+0xfffe64d5>
   10518:	02f01023          	sh	a5,32(zero) # 20 <main-0x10094>
   1051c:	d20402e3          	beqz	s0,10240 <main+0x18c>
   10520:	fff40413          	addi	s0,s0,-1
   10524:	d95ff06f          	j	102b8 <main+0x204>
   10528:	03010513          	addi	a0,sp,48
   1052c:	3e9000ef          	jal	11114 <rover_high_go_straight.isra.0>
   10530:	075b1463          	bne	s6,s5,10598 <main+0x4e4>
   10534:	03401023          	sh	s4,32(zero) # 20 <main-0x10094>
   10538:	0dc00793          	li	a5,220
   1053c:	d147e4e3          	bltu	a5,s4,10244 <main+0x190>
   10540:	0ff00793          	li	a5,255
   10544:	00f98a63          	beq	s3,a5,10558 <main+0x4a4>
   10548:	00198993          	addi	s3,s3,1
   1054c:	0ff9f993          	zext.b	s3,s3
   10550:	00200793          	li	a5,2
   10554:	d737f2e3          	bgeu	a5,s3,102b8 <main+0x204>
   10558:	00300913          	li	s2,3
   1055c:	ce9ff06f          	j	10244 <main+0x190>
   10560:	03010513          	addi	a0,sp,48
   10564:	3b1000ef          	jal	11114 <rover_high_go_straight.isra.0>
   10568:	035b1863          	bne	s6,s5,10598 <main+0x4e4>
   1056c:	03401023          	sh	s4,32(zero) # 20 <main-0x10094>
   10570:	12b00793          	li	a5,299
   10574:	d547f0e3          	bgeu	a5,s4,102b4 <main+0x200>
   10578:	0ff00793          	li	a5,255
   1057c:	00f48a63          	beq	s1,a5,10590 <main+0x4dc>
   10580:	00148493          	addi	s1,s1,1
   10584:	0ff4f493          	zext.b	s1,s1
   10588:	00200793          	li	a5,2
   1058c:	d297f6e3          	bgeu	a5,s1,102b8 <main+0x204>
   10590:	00400913          	li	s2,4
   10594:	d19ff06f          	j	102ac <main+0x1f8>
   10598:	ff200793          	li	a5,-14
   1059c:	02f01023          	sh	a5,32(zero) # 20 <main-0x10094>
   105a0:	d19ff06f          	j	102b8 <main+0x204>
   105a4:	04b00613          	li	a2,75
   105a8:	fb500593          	li	a1,-75
   105ac:	03010513          	addi	a0,sp,48
   105b0:	15d000ef          	jal	10f0c <rover_high_drive.isra.0>
   105b4:	ffff97b7          	lui	a5,0xffff9
   105b8:	00278793          	addi	a5,a5,2 # ffff9002 <__global_pointer$+0xfffe64d6>
   105bc:	02f01023          	sh	a5,32(zero) # 20 <main-0x10094>
   105c0:	f60410e3          	bnez	s0,10520 <main+0x46c>
   105c4:	00500913          	li	s2,5
   105c8:	cf1ff06f          	j	102b8 <main+0x204>
   105cc:	03010513          	addi	a0,sp,48
   105d0:	345000ef          	jal	11114 <rover_high_go_straight.isra.0>
   105d4:	015b1663          	bne	s6,s5,105e0 <main+0x52c>
   105d8:	03401023          	sh	s4,32(zero) # 20 <main-0x10094>
   105dc:	fe9ff06f          	j	105c4 <main+0x510>
   105e0:	ff200793          	li	a5,-14
   105e4:	02f01023          	sh	a5,32(zero) # 20 <main-0x10094>
   105e8:	fddff06f          	j	105c4 <main+0x510>
   105ec:	00100613          	li	a2,1
   105f0:	01810593          	addi	a1,sp,24
   105f4:	02e00513          	li	a0,46
   105f8:	409000ef          	jal	11200 <vl53l1x_read_multi>
   105fc:	b0050ee3          	beqz	a0,10118 <main+0x64>
   10600:	01814583          	lbu	a1,24(sp)
   10604:	02e00513          	li	a0,46
   10608:	0015e593          	ori	a1,a1,1
   1060c:	391000ef          	jal	1119c <vl53l1x_write8>
   10610:	b00504e3          	beqz	a0,10118 <main+0x64>
   10614:	32e48593          	addi	a1,s1,814
   10618:	00600513          	li	a0,6
   1061c:	4a1000ef          	jal	112bc <vl53l1x_read16>
   10620:	ae050ce3          	beqz	a0,10118 <main+0x64>
   10624:	32c90593          	addi	a1,s2,812
   10628:	0de00513          	li	a0,222
   1062c:	491000ef          	jal	112bc <vl53l1x_read16>
   10630:	ae0504e3          	beqz	a0,10118 <main+0x64>
   10634:	32e4d783          	lhu	a5,814(s1)
   10638:	ae0780e3          	beqz	a5,10118 <main+0x64>
   1063c:	32c95783          	lhu	a5,812(s2)
   10640:	ac078ce3          	beqz	a5,10118 <main+0x64>
   10644:	000015b7          	lui	a1,0x1
   10648:	a0058593          	addi	a1,a1,-1536 # a00 <main-0xf6b4>
   1064c:	02400513          	li	a0,36
   10650:	379000ef          	jal	111c8 <vl53l1x_write16>
   10654:	ac0502e3          	beqz	a0,10118 <main+0x64>
   10658:	00200593          	li	a1,2
   1065c:	03100513          	li	a0,49
   10660:	33d000ef          	jal	1119c <vl53l1x_write8>
   10664:	aa050ae3          	beqz	a0,10118 <main+0x64>
   10668:	00800593          	li	a1,8
   1066c:	03600513          	li	a0,54
   10670:	32d000ef          	jal	1119c <vl53l1x_write8>
   10674:	aa0502e3          	beqz	a0,10118 <main+0x64>
   10678:	01000593          	li	a1,16
   1067c:	03700513          	li	a0,55
   10680:	31d000ef          	jal	1119c <vl53l1x_write8>
   10684:	a8050ae3          	beqz	a0,10118 <main+0x64>
   10688:	00100593          	li	a1,1
   1068c:	03900513          	li	a0,57
   10690:	30d000ef          	jal	1119c <vl53l1x_write8>
   10694:	a80502e3          	beqz	a0,10118 <main+0x64>
   10698:	0ff00593          	li	a1,255
   1069c:	03e00513          	li	a0,62
   106a0:	2fd000ef          	jal	1119c <vl53l1x_write8>
   106a4:	a6050ae3          	beqz	a0,10118 <main+0x64>
   106a8:	00000593          	li	a1,0
   106ac:	03f00513          	li	a0,63
   106b0:	2ed000ef          	jal	1119c <vl53l1x_write8>
   106b4:	a60502e3          	beqz	a0,10118 <main+0x64>
   106b8:	00200593          	li	a1,2
   106bc:	04000513          	li	a0,64
   106c0:	2dd000ef          	jal	1119c <vl53l1x_write8>
   106c4:	a4050ae3          	beqz	a0,10118 <main+0x64>
   106c8:	00000593          	li	a1,0
   106cc:	05000513          	li	a0,80
   106d0:	2f9000ef          	jal	111c8 <vl53l1x_write16>
   106d4:	a40502e3          	beqz	a0,10118 <main+0x64>
   106d8:	00000593          	li	a1,0
   106dc:	05200513          	li	a0,82
   106e0:	2e9000ef          	jal	111c8 <vl53l1x_write16>
   106e4:	a2050ae3          	beqz	a0,10118 <main+0x64>
   106e8:	03800593          	li	a1,56
   106ec:	05700513          	li	a0,87
   106f0:	2ad000ef          	jal	1119c <vl53l1x_write8>
   106f4:	a20502e3          	beqz	a0,10118 <main+0x64>
   106f8:	16800593          	li	a1,360
   106fc:	06400513          	li	a0,100
   10700:	2c9000ef          	jal	111c8 <vl53l1x_write16>
   10704:	a0050ae3          	beqz	a0,10118 <main+0x64>
   10708:	0c000593          	li	a1,192
   1070c:	06600513          	li	a0,102
   10710:	2b9000ef          	jal	111c8 <vl53l1x_write16>
   10714:	a00502e3          	beqz	a0,10118 <main+0x64>
   10718:	00100593          	li	a1,1
   1071c:	07100513          	li	a0,113
   10720:	27d000ef          	jal	1119c <vl53l1x_write8>
   10724:	9e050ae3          	beqz	a0,10118 <main+0x64>
   10728:	00100593          	li	a1,1
   1072c:	07c00513          	li	a0,124
   10730:	26d000ef          	jal	1119c <vl53l1x_write8>
   10734:	9e0502e3          	beqz	a0,10118 <main+0x64>
   10738:	00200593          	li	a1,2
   1073c:	07e00513          	li	a0,126
   10740:	25d000ef          	jal	1119c <vl53l1x_write8>
   10744:	9c050ae3          	beqz	a0,10118 <main+0x64>
   10748:	00000593          	li	a1,0
   1074c:	08200513          	li	a0,130
   10750:	24d000ef          	jal	1119c <vl53l1x_write8>
   10754:	9c0502e3          	beqz	a0,10118 <main+0x64>
   10758:	00100593          	li	a1,1
   1075c:	07700513          	li	a0,119
   10760:	23d000ef          	jal	1119c <vl53l1x_write8>
   10764:	9a050ae3          	beqz	a0,10118 <main+0x64>
   10768:	08b00593          	li	a1,139
   1076c:	08100513          	li	a0,129
   10770:	22d000ef          	jal	1119c <vl53l1x_write8>
   10774:	9a0502e3          	beqz	a0,10118 <main+0x64>
   10778:	0000d5b7          	lui	a1,0xd
   1077c:	80058593          	addi	a1,a1,-2048 # c800 <main-0x38b4>
   10780:	05400513          	li	a0,84
   10784:	245000ef          	jal	111c8 <vl53l1x_write16>
   10788:	980508e3          	beqz	a0,10118 <main+0x64>
   1078c:	00200593          	li	a1,2
   10790:	04f00513          	li	a0,79
   10794:	209000ef          	jal	1119c <vl53l1x_write8>
   10798:	980500e3          	beqz	a0,10118 <main+0x64>
   1079c:	00f00593          	li	a1,15
   107a0:	06000513          	li	a0,96
   107a4:	1f9000ef          	jal	1119c <vl53l1x_write8>
   107a8:	960508e3          	beqz	a0,10118 <main+0x64>
   107ac:	00d00593          	li	a1,13
   107b0:	06300513          	li	a0,99
   107b4:	1e9000ef          	jal	1119c <vl53l1x_write8>
   107b8:	960500e3          	beqz	a0,10118 <main+0x64>
   107bc:	0b800593          	li	a1,184
   107c0:	06900513          	li	a0,105
   107c4:	1d9000ef          	jal	1119c <vl53l1x_write8>
   107c8:	940508e3          	beqz	a0,10118 <main+0x64>
   107cc:	00f00593          	li	a1,15
   107d0:	07800513          	li	a0,120
   107d4:	1c9000ef          	jal	1119c <vl53l1x_write8>
   107d8:	940500e3          	beqz	a0,10118 <main+0x64>
   107dc:	00d00593          	li	a1,13
   107e0:	07900513          	li	a0,121
   107e4:	1b9000ef          	jal	1119c <vl53l1x_write8>
   107e8:	920508e3          	beqz	a0,10118 <main+0x64>
   107ec:	00e00593          	li	a1,14
   107f0:	07a00513          	li	a0,122
   107f4:	1a9000ef          	jal	1119c <vl53l1x_write8>
   107f8:	920500e3          	beqz	a0,10118 <main+0x64>
   107fc:	00e00593          	li	a1,14
   10800:	07b00513          	li	a0,123
   10804:	199000ef          	jal	1119c <vl53l1x_write8>
   10808:	900508e3          	beqz	a0,10118 <main+0x64>
   1080c:	00100613          	li	a2,1
   10810:	03010593          	addi	a1,sp,48
   10814:	06000513          	li	a0,96
   10818:	1e9000ef          	jal	11200 <vl53l1x_read_multi>
   1081c:	8e050ee3          	beqz	a0,10118 <main+0x64>
   10820:	03014503          	lbu	a0,48(sp)
   10824:	378000ef          	jal	10b9c <vl53l1x_calc_macro_period>
   10828:	00050413          	mv	s0,a0
   1082c:	8e0506e3          	beqz	a0,10118 <main+0x64>
   10830:	00050593          	mv	a1,a0
   10834:	3e800513          	li	a0,1000
   10838:	2a0000ef          	jal	10ad8 <vl53l1x_div_shift12_round_u32>
   1083c:	0ff53593          	sltiu	a1,a0,255
   10840:	fff58593          	addi	a1,a1,-1
   10844:	00a5e5b3          	or	a1,a1,a0
   10848:	0ff5f593          	zext.b	a1,a1
   1084c:	04b00513          	li	a0,75
   10850:	14d000ef          	jal	1119c <vl53l1x_write8>
   10854:	8c0502e3          	beqz	a0,10118 <main+0x64>
   10858:	00040593          	mv	a1,s0
   1085c:	00100513          	li	a0,1
   10860:	278000ef          	jal	10ad8 <vl53l1x_div_shift12_round_u32>
   10864:	304000ef          	jal	10b68 <vl53l1x_encode_timeout>
   10868:	00050593          	mv	a1,a0
   1086c:	05a00513          	li	a0,90
   10870:	159000ef          	jal	111c8 <vl53l1x_write16>
   10874:	8a0502e3          	beqz	a0,10118 <main+0x64>
   10878:	00006537          	lui	a0,0x6
   1087c:	00040593          	mv	a1,s0
   10880:	8d050513          	addi	a0,a0,-1840 # 58d0 <main-0xa7e4>
   10884:	254000ef          	jal	10ad8 <vl53l1x_div_shift12_round_u32>
   10888:	2e0000ef          	jal	10b68 <vl53l1x_encode_timeout>
   1088c:	00050593          	mv	a1,a0
   10890:	05e00513          	li	a0,94
   10894:	135000ef          	jal	111c8 <vl53l1x_write16>
   10898:	880500e3          	beqz	a0,10118 <main+0x64>
   1089c:	00100613          	li	a2,1
   108a0:	03010593          	addi	a1,sp,48
   108a4:	06300513          	li	a0,99
   108a8:	159000ef          	jal	11200 <vl53l1x_read_multi>
   108ac:	860506e3          	beqz	a0,10118 <main+0x64>
   108b0:	03014503          	lbu	a0,48(sp)
   108b4:	2e8000ef          	jal	10b9c <vl53l1x_calc_macro_period>
   108b8:	00050413          	mv	s0,a0
   108bc:	84050ee3          	beqz	a0,10118 <main+0x64>
   108c0:	00050593          	mv	a1,a0
   108c4:	00100513          	li	a0,1
   108c8:	210000ef          	jal	10ad8 <vl53l1x_div_shift12_round_u32>
   108cc:	29c000ef          	jal	10b68 <vl53l1x_encode_timeout>
   108d0:	00050593          	mv	a1,a0
   108d4:	05c00513          	li	a0,92
   108d8:	0f1000ef          	jal	111c8 <vl53l1x_write16>
   108dc:	82050ee3          	beqz	a0,10118 <main+0x64>
   108e0:	00006537          	lui	a0,0x6
   108e4:	00040593          	mv	a1,s0
   108e8:	8d050513          	addi	a0,a0,-1840 # 58d0 <main-0xa7e4>
   108ec:	1ec000ef          	jal	10ad8 <vl53l1x_div_shift12_round_u32>
   108f0:	278000ef          	jal	10b68 <vl53l1x_encode_timeout>
   108f4:	00050593          	mv	a1,a0
   108f8:	06100513          	li	a0,97
   108fc:	0cd000ef          	jal	111c8 <vl53l1x_write16>
   10900:	80050ce3          	beqz	a0,10118 <main+0x64>
   10904:	01c10593          	addi	a1,sp,28
   10908:	02200513          	li	a0,34
   1090c:	1b1000ef          	jal	112bc <vl53l1x_read16>
   10910:	800504e3          	beqz	a0,10118 <main+0x64>
   10914:	01c15583          	lhu	a1,28(sp)
   10918:	01e00513          	li	a0,30
   1091c:	00259593          	slli	a1,a1,0x2
   10920:	01059593          	slli	a1,a1,0x10
   10924:	0105d593          	srli	a1,a1,0x10
   10928:	0a1000ef          	jal	111c8 <vl53l1x_write16>
   1092c:	fe050663          	beqz	a0,10118 <main+0x64>
   10930:	000127b7          	lui	a5,0x12
   10934:	32c7d403          	lhu	s0,812(a5) # 1232c <osc_calibrate_val>
   10938:	03200713          	li	a4,50
   1093c:	00000793          	li	a5,0
   10940:	860412e3          	bnez	s0,101a4 <main+0xf0>
   10944:	00007737          	lui	a4,0x7
   10948:	c0070713          	addi	a4,a4,-1024 # 6c00 <main-0x94b4>
   1094c:	02e11823          	sh	a4,48(sp)
   10950:	0187d713          	srli	a4,a5,0x18
   10954:	01079693          	slli	a3,a5,0x10
   10958:	02e10923          	sb	a4,50(sp)
   1095c:	0107d713          	srli	a4,a5,0x10
   10960:	02e109a3          	sb	a4,51(sp)
   10964:	00879793          	slli	a5,a5,0x8
   10968:	0186d713          	srli	a4,a3,0x18
   1096c:	00f707b3          	add	a5,a4,a5
   10970:	00600593          	li	a1,6
   10974:	03010513          	addi	a0,sp,48
   10978:	02f11a23          	sh	a5,52(sp)
   1097c:	7a4000ef          	jal	11120 <i2c_write_burst.constprop.0>
   10980:	f8050c63          	beqz	a0,10118 <main+0x64>
   10984:	00100593          	li	a1,1
   10988:	08600513          	li	a0,134
   1098c:	011000ef          	jal	1119c <vl53l1x_write8>
   10990:	f8050463          	beqz	a0,10118 <main+0x64>
   10994:	04000593          	li	a1,64
   10998:	08700513          	li	a0,135
   1099c:	001000ef          	jal	1119c <vl53l1x_write8>
   109a0:	f6050c63          	beqz	a0,10118 <main+0x64>
   109a4:	03800793          	li	a5,56
   109a8:	00f10c23          	sb	a5,24(sp)
   109ac:	354000ef          	jal	10d00 <i2c_prepare_transaction>
   109b0:	00050e63          	beqz	a0,109cc <main+0x918>
   109b4:	3dc000ef          	jal	10d90 <i2c_start>
   109b8:	00050a63          	beqz	a0,109cc <main+0x918>
   109bc:	07000513          	li	a0,112
   109c0:	40c000ef          	jal	10dcc <i2c_write_byte>
   109c4:	fe051e63          	bnez	a0,101c0 <main+0x10c>
   109c8:	3e0000ef          	jal	10da8 <i2c_fail_with_stop_if_possible.isra.0>
   109cc:	ff500793          	li	a5,-11
   109d0:	02f01023          	sh	a5,32(zero) # 20 <main-0x10094>
   109d4:	ffdff06f          	j	109d0 <main+0x91c>

000109d8 <rover_clamp_speed>:
   109d8:	f8100713          	li	a4,-127
   109dc:	00050793          	mv	a5,a0
   109e0:	00e55463          	bge	a0,a4,109e8 <rover_clamp_speed+0x10>
   109e4:	00070793          	mv	a5,a4
   109e8:	01879513          	slli	a0,a5,0x18
   109ec:	41855513          	srai	a0,a0,0x18
   109f0:	00008067          	ret

000109f4 <rover_high_valid_map>:
   109f4:	00052783          	lw	a5,0(a0)
   109f8:	fe010113          	addi	sp,sp,-32
   109fc:	00012623          	sw	zero,12(sp)
   10a00:	00f12823          	sw	a5,16(sp)
   10a04:	00452783          	lw	a5,4(a0)
   10a08:	01010713          	addi	a4,sp,16
   10a0c:	00300613          	li	a2,3
   10a10:	00f12a23          	sw	a5,20(sp)
   10a14:	00852783          	lw	a5,8(a0)
   10a18:	00100693          	li	a3,1
   10a1c:	00f12c23          	sw	a5,24(sp)
   10a20:	00c52783          	lw	a5,12(a0)
   10a24:	00f12e23          	sw	a5,28(sp)
   10a28:	00072783          	lw	a5,0(a4)
   10a2c:	fff78793          	addi	a5,a5,-1
   10a30:	02f66a63          	bltu	a2,a5,10a64 <rover_high_valid_map+0x70>
   10a34:	0ff7f793          	zext.b	a5,a5
   10a38:	02078793          	addi	a5,a5,32
   10a3c:	002787b3          	add	a5,a5,sp
   10a40:	fec7c583          	lbu	a1,-20(a5)
   10a44:	02059063          	bnez	a1,10a64 <rover_high_valid_map+0x70>
   10a48:	fed78623          	sb	a3,-20(a5)
   10a4c:	00470713          	addi	a4,a4,4
   10a50:	02010793          	addi	a5,sp,32
   10a54:	fcf71ae3          	bne	a4,a5,10a28 <rover_high_valid_map+0x34>
   10a58:	00100513          	li	a0,1
   10a5c:	02010113          	addi	sp,sp,32
   10a60:	00008067          	ret
   10a64:	00000513          	li	a0,0
   10a68:	ff5ff06f          	j	10a5c <rover_high_valid_map+0x68>

00010a6c <vl53l1x_default_delay_us>:
   10a6c:	ff010113          	addi	sp,sp,-16
   10a70:	00351513          	slli	a0,a0,0x3
   10a74:	00a12623          	sw	a0,12(sp)
   10a78:	00c12783          	lw	a5,12(sp)
   10a7c:	fff78713          	addi	a4,a5,-1
   10a80:	00e12623          	sw	a4,12(sp)
   10a84:	fe079ae3          	bnez	a5,10a78 <vl53l1x_default_delay_us+0xc>
   10a88:	01010113          	addi	sp,sp,16
   10a8c:	00008067          	ret

00010a90 <vl53l1x_divmod_u32_soft>:
   10a90:	00050793          	mv	a5,a0
   10a94:	00100713          	li	a4,1
   10a98:	00f5f463          	bgeu	a1,a5,10aa0 <vl53l1x_divmod_u32_soft+0x10>
   10a9c:	0005dc63          	bgez	a1,10ab4 <vl53l1x_divmod_u32_soft+0x24>
   10aa0:	00000513          	li	a0,0
   10aa4:	00071e63          	bnez	a4,10ac0 <vl53l1x_divmod_u32_soft+0x30>
   10aa8:	00060463          	beqz	a2,10ab0 <vl53l1x_divmod_u32_soft+0x20>
   10aac:	00f62023          	sw	a5,0(a2)
   10ab0:	00008067          	ret
   10ab4:	00159593          	slli	a1,a1,0x1
   10ab8:	00171713          	slli	a4,a4,0x1
   10abc:	fddff06f          	j	10a98 <vl53l1x_divmod_u32_soft+0x8>
   10ac0:	00b7e663          	bltu	a5,a1,10acc <vl53l1x_divmod_u32_soft+0x3c>
   10ac4:	40b787b3          	sub	a5,a5,a1
   10ac8:	00e56533          	or	a0,a0,a4
   10acc:	0015d593          	srli	a1,a1,0x1
   10ad0:	00175713          	srli	a4,a4,0x1
   10ad4:	fd1ff06f          	j	10aa4 <vl53l1x_divmod_u32_soft+0x14>

00010ad8 <vl53l1x_div_shift12_round_u32>:
   10ad8:	fd010113          	addi	sp,sp,-48
   10adc:	01c10613          	addi	a2,sp,28
   10ae0:	02112623          	sw	ra,44(sp)
   10ae4:	00b12623          	sw	a1,12(sp)
   10ae8:	fa9ff0ef          	jal	10a90 <vl53l1x_divmod_u32_soft>
   10aec:	001007b7          	lui	a5,0x100
   10af0:	06f57863          	bgeu	a0,a5,10b60 <vl53l1x_div_shift12_round_u32+0x88>
   10af4:	00c12583          	lw	a1,12(sp)
   10af8:	01c12783          	lw	a5,28(sp)
   10afc:	00c51693          	slli	a3,a0,0xc
   10b00:	0015f613          	andi	a2,a1,1
   10b04:	0015d593          	srli	a1,a1,0x1
   10b08:	00c585b3          	add	a1,a1,a2
   10b0c:	00c00713          	li	a4,12
   10b10:	00000513          	li	a0,0
   10b14:	00151513          	slli	a0,a0,0x1
   10b18:	04b7e063          	bltu	a5,a1,10b58 <vl53l1x_div_shift12_round_u32+0x80>
   10b1c:	40b787b3          	sub	a5,a5,a1
   10b20:	00179793          	slli	a5,a5,0x1
   10b24:	00156513          	ori	a0,a0,1
   10b28:	00c7e7b3          	or	a5,a5,a2
   10b2c:	fff70713          	addi	a4,a4,-1
   10b30:	0ff77713          	zext.b	a4,a4
   10b34:	fe0710e3          	bnez	a4,10b14 <vl53l1x_div_shift12_round_u32+0x3c>
   10b38:	00d50533          	add	a0,a0,a3
   10b3c:	00b7e863          	bltu	a5,a1,10b4c <vl53l1x_div_shift12_round_u32+0x74>
   10b40:	00150793          	addi	a5,a0,1
   10b44:	00f037b3          	snez	a5,a5
   10b48:	00f50533          	add	a0,a0,a5
   10b4c:	02c12083          	lw	ra,44(sp)
   10b50:	03010113          	addi	sp,sp,48
   10b54:	00008067          	ret
   10b58:	00179793          	slli	a5,a5,0x1
   10b5c:	fd1ff06f          	j	10b2c <vl53l1x_div_shift12_round_u32+0x54>
   10b60:	fff00513          	li	a0,-1
   10b64:	fe9ff06f          	j	10b4c <vl53l1x_div_shift12_round_u32+0x74>

00010b68 <vl53l1x_encode_timeout>:
   10b68:	02050263          	beqz	a0,10b8c <vl53l1x_encode_timeout+0x24>
   10b6c:	fff50713          	addi	a4,a0,-1
   10b70:	00000793          	li	a5,0
   10b74:	0ff00693          	li	a3,255
   10b78:	00e6ec63          	bltu	a3,a4,10b90 <vl53l1x_encode_timeout+0x28>
   10b7c:	00879513          	slli	a0,a5,0x8
   10b80:	00e56533          	or	a0,a0,a4
   10b84:	01051513          	slli	a0,a0,0x10
   10b88:	01055513          	srli	a0,a0,0x10
   10b8c:	00008067          	ret
   10b90:	00175713          	srli	a4,a4,0x1
   10b94:	00178793          	addi	a5,a5,1 # 100001 <__global_pointer$+0xed4d5>
   10b98:	fe1ff06f          	j	10b78 <vl53l1x_encode_timeout+0x10>

00010b9c <vl53l1x_calc_macro_period>:
   10b9c:	000127b7          	lui	a5,0x12
   10ba0:	32e7d583          	lhu	a1,814(a5) # 1232e <fast_osc_frequency>
   10ba4:	06058a63          	beqz	a1,10c18 <vl53l1x_calc_macro_period+0x7c>
   10ba8:	ff010113          	addi	sp,sp,-16
   10bac:	00812423          	sw	s0,8(sp)
   10bb0:	00000613          	li	a2,0
   10bb4:	00050413          	mv	s0,a0
   10bb8:	40000537          	lui	a0,0x40000
   10bbc:	00112623          	sw	ra,12(sp)
   10bc0:	ed1ff0ef          	jal	10a90 <vl53l1x_divmod_u32_soft>
   10bc4:	00351713          	slli	a4,a0,0x3
   10bc8:	00a70733          	add	a4,a4,a0
   10bcc:	00140793          	addi	a5,s0,1
   10bd0:	00871713          	slli	a4,a4,0x8
   10bd4:	00179793          	slli	a5,a5,0x1
   10bd8:	00675713          	srli	a4,a4,0x6
   10bdc:	0ff7f793          	zext.b	a5,a5
   10be0:	00000513          	li	a0,0
   10be4:	00079c63          	bnez	a5,10bfc <vl53l1x_calc_macro_period+0x60>
   10be8:	00c12083          	lw	ra,12(sp)
   10bec:	00812403          	lw	s0,8(sp)
   10bf0:	00655513          	srli	a0,a0,0x6
   10bf4:	01010113          	addi	sp,sp,16
   10bf8:	00008067          	ret
   10bfc:	01f79613          	slli	a2,a5,0x1f
   10c00:	41f65693          	srai	a3,a2,0x1f
   10c04:	00e6f6b3          	and	a3,a3,a4
   10c08:	00d50533          	add	a0,a0,a3
   10c0c:	00171713          	slli	a4,a4,0x1
   10c10:	0017d793          	srli	a5,a5,0x1
   10c14:	fd1ff06f          	j	10be4 <vl53l1x_calc_macro_period+0x48>
   10c18:	00000513          	li	a0,0
   10c1c:	00008067          	ret

00010c20 <i2c_wait_ready>:
   10c20:	000f47b7          	lui	a5,0xf4
   10c24:	24078793          	addi	a5,a5,576 # f4240 <__global_pointer$+0xe1714>
   10c28:	02904703          	lbu	a4,41(zero) # 29 <main-0x1008b>
   10c2c:	00177713          	andi	a4,a4,1
   10c30:	00070663          	beqz	a4,10c3c <i2c_wait_ready+0x1c>
   10c34:	00100513          	li	a0,1
   10c38:	00008067          	ret
   10c3c:	02a04703          	lbu	a4,42(zero) # 2a <main-0x1008a>
   10c40:	00177713          	andi	a4,a4,1
   10c44:	00071663          	bnez	a4,10c50 <i2c_wait_ready+0x30>
   10c48:	fff78793          	addi	a5,a5,-1
   10c4c:	fc079ee3          	bnez	a5,10c28 <i2c_wait_ready+0x8>
   10c50:	00000513          	li	a0,0
   10c54:	00008067          	ret

00010c58 <i2c_exec_cmd>:
   10c58:	02000223          	sb	zero,36(zero) # 24 <main-0x10090>
   10c5c:	02a04783          	lbu	a5,42(zero) # 2a <main-0x1008a>
   10c60:	0017f793          	andi	a5,a5,1
   10c64:	08079a63          	bnez	a5,10cf8 <i2c_exec_cmd+0xa0>
   10c68:	fe010113          	addi	sp,sp,-32
   10c6c:	00812c23          	sw	s0,24(sp)
   10c70:	00112e23          	sw	ra,28(sp)
   10c74:	00050413          	mv	s0,a0
   10c78:	00b12623          	sw	a1,12(sp)
   10c7c:	fa5ff0ef          	jal	10c20 <i2c_wait_ready>
   10c80:	04050c63          	beqz	a0,10cd8 <i2c_exec_cmd+0x80>
   10c84:	00c12583          	lw	a1,12(sp)
   10c88:	00100793          	li	a5,1
   10c8c:	02b00323          	sb	a1,38(zero) # 26 <main-0x1008e>
   10c90:	028002a3          	sb	s0,37(zero) # 25 <main-0x1008f>
   10c94:	02f00223          	sb	a5,36(zero) # 24 <main-0x10090>
   10c98:	000f47b7          	lui	a5,0xf4
   10c9c:	24078793          	addi	a5,a5,576 # f4240 <__global_pointer$+0xe1714>
   10ca0:	02904703          	lbu	a4,41(zero) # 29 <main-0x1008b>
   10ca4:	00177713          	andi	a4,a4,1
   10ca8:	02071063          	bnez	a4,10cc8 <i2c_exec_cmd+0x70>
   10cac:	02000223          	sb	zero,36(zero) # 24 <main-0x10090>
   10cb0:	f71ff0ef          	jal	10c20 <i2c_wait_ready>
   10cb4:	02050263          	beqz	a0,10cd8 <i2c_exec_cmd+0x80>
   10cb8:	02a04503          	lbu	a0,42(zero) # 2a <main-0x1008a>
   10cbc:	fff54513          	not	a0,a0
   10cc0:	00157513          	andi	a0,a0,1
   10cc4:	0180006f          	j	10cdc <i2c_exec_cmd+0x84>
   10cc8:	02a04703          	lbu	a4,42(zero) # 2a <main-0x1008a>
   10ccc:	00177713          	andi	a4,a4,1
   10cd0:	00070e63          	beqz	a4,10cec <i2c_exec_cmd+0x94>
   10cd4:	02000223          	sb	zero,36(zero) # 24 <main-0x10090>
   10cd8:	00000513          	li	a0,0
   10cdc:	01c12083          	lw	ra,28(sp)
   10ce0:	01812403          	lw	s0,24(sp)
   10ce4:	02010113          	addi	sp,sp,32
   10ce8:	00008067          	ret
   10cec:	fff78793          	addi	a5,a5,-1
   10cf0:	fa0798e3          	bnez	a5,10ca0 <i2c_exec_cmd+0x48>
   10cf4:	fe1ff06f          	j	10cd4 <i2c_exec_cmd+0x7c>
   10cf8:	00000513          	li	a0,0
   10cfc:	00008067          	ret

00010d00 <i2c_prepare_transaction>:
   10d00:	02000223          	sb	zero,36(zero) # 24 <main-0x10090>
   10d04:	02a04783          	lbu	a5,42(zero) # 2a <main-0x1008a>
   10d08:	0017f793          	andi	a5,a5,1
   10d0c:	02079a63          	bnez	a5,10d40 <i2c_prepare_transaction+0x40>
   10d10:	ff010113          	addi	sp,sp,-16
   10d14:	00112623          	sw	ra,12(sp)
   10d18:	f09ff0ef          	jal	10c20 <i2c_wait_ready>
   10d1c:	06050663          	beqz	a0,10d88 <i2c_prepare_transaction+0x88>
   10d20:	000f47b7          	lui	a5,0xf4
   10d24:	24078793          	addi	a5,a5,576 # f4240 <__global_pointer$+0xe1714>
   10d28:	02c04703          	lbu	a4,44(zero) # 2c <main-0x10088>
   10d2c:	00177713          	andi	a4,a4,1
   10d30:	04071263          	bnez	a4,10d74 <i2c_prepare_transaction+0x74>
   10d34:	00c12083          	lw	ra,12(sp)
   10d38:	01010113          	addi	sp,sp,16
   10d3c:	00008067          	ret
   10d40:	00100793          	li	a5,1
   10d44:	02f005a3          	sb	a5,43(zero) # 2b <main-0x10089>
   10d48:	02a04783          	lbu	a5,42(zero) # 2a <main-0x1008a>
   10d4c:	020005a3          	sb	zero,43(zero) # 2b <main-0x10089>
   10d50:	000f47b7          	lui	a5,0xf4
   10d54:	24078793          	addi	a5,a5,576 # f4240 <__global_pointer$+0xe1714>
   10d58:	02a04703          	lbu	a4,42(zero) # 2a <main-0x1008a>
   10d5c:	00177713          	andi	a4,a4,1
   10d60:	fa0708e3          	beqz	a4,10d10 <i2c_prepare_transaction+0x10>
   10d64:	fff78793          	addi	a5,a5,-1
   10d68:	fe0798e3          	bnez	a5,10d58 <i2c_prepare_transaction+0x58>
   10d6c:	00000513          	li	a0,0
   10d70:	00008067          	ret
   10d74:	02a04703          	lbu	a4,42(zero) # 2a <main-0x1008a>
   10d78:	00177713          	andi	a4,a4,1
   10d7c:	00071663          	bnez	a4,10d88 <i2c_prepare_transaction+0x88>
   10d80:	fff78793          	addi	a5,a5,-1
   10d84:	fa0792e3          	bnez	a5,10d28 <i2c_prepare_transaction+0x28>
   10d88:	00000513          	li	a0,0
   10d8c:	fa9ff06f          	j	10d34 <i2c_prepare_transaction+0x34>

00010d90 <i2c_start>:
   10d90:	00000593          	li	a1,0
   10d94:	00100513          	li	a0,1
   10d98:	ec1ff06f          	j	10c58 <i2c_exec_cmd>

00010d9c <i2c_stop>:
   10d9c:	00000593          	li	a1,0
   10da0:	00400513          	li	a0,4
   10da4:	eb5ff06f          	j	10c58 <i2c_exec_cmd>

00010da8 <i2c_fail_with_stop_if_possible.isra.0>:
   10da8:	02000223          	sb	zero,36(zero) # 24 <main-0x10090>
   10dac:	02a04783          	lbu	a5,42(zero) # 2a <main-0x1008a>
   10db0:	0017f793          	andi	a5,a5,1
   10db4:	00079a63          	bnez	a5,10dc8 <i2c_fail_with_stop_if_possible.isra.0+0x20>
   10db8:	02904783          	lbu	a5,41(zero) # 29 <main-0x1008b>
   10dbc:	0017f793          	andi	a5,a5,1
   10dc0:	00078463          	beqz	a5,10dc8 <i2c_fail_with_stop_if_possible.isra.0+0x20>
   10dc4:	fd9ff06f          	j	10d9c <i2c_stop>
   10dc8:	00008067          	ret

00010dcc <i2c_write_byte>:
   10dcc:	ff010113          	addi	sp,sp,-16
   10dd0:	00050593          	mv	a1,a0
   10dd4:	00200513          	li	a0,2
   10dd8:	00112623          	sw	ra,12(sp)
   10ddc:	e7dff0ef          	jal	10c58 <i2c_exec_cmd>
   10de0:	00050863          	beqz	a0,10df0 <i2c_write_byte+0x24>
   10de4:	02804503          	lbu	a0,40(zero) # 28 <main-0x1008c>
   10de8:	fff54513          	not	a0,a0
   10dec:	00157513          	andi	a0,a0,1
   10df0:	00c12083          	lw	ra,12(sp)
   10df4:	01010113          	addi	sp,sp,16
   10df8:	00008067          	ret

00010dfc <rover_set_motors.isra.0>:
   10dfc:	10050663          	beqz	a0,10f08 <rover_set_motors.isra.0+0x10c>
   10e00:	fd010113          	addi	sp,sp,-48
   10e04:	02112623          	sw	ra,44(sp)
   10e08:	02812423          	sw	s0,40(sp)
   10e0c:	02912223          	sw	s1,36(sp)
   10e10:	03212023          	sw	s2,32(sp)
   10e14:	01312e23          	sw	s3,28(sp)
   10e18:	00054403          	lbu	s0,0(a0) # 40000000 <__global_pointer$+0x3ffed4d4>
   10e1c:	01841793          	slli	a5,s0,0x18
   10e20:	4187d793          	srai	a5,a5,0x18
   10e24:	0c07c463          	bltz	a5,10eec <rover_set_motors.isra.0+0xf0>
   10e28:	00058513          	mv	a0,a1
   10e2c:	00070493          	mv	s1,a4
   10e30:	00068913          	mv	s2,a3
   10e34:	00060993          	mv	s3,a2
   10e38:	ba1ff0ef          	jal	109d8 <rover_clamp_speed>
   10e3c:	00a10623          	sb	a0,12(sp)
   10e40:	00098513          	mv	a0,s3
   10e44:	b95ff0ef          	jal	109d8 <rover_clamp_speed>
   10e48:	00a106a3          	sb	a0,13(sp)
   10e4c:	00090513          	mv	a0,s2
   10e50:	b89ff0ef          	jal	109d8 <rover_clamp_speed>
   10e54:	00a10723          	sb	a0,14(sp)
   10e58:	00048513          	mv	a0,s1
   10e5c:	b7dff0ef          	jal	109d8 <rover_clamp_speed>
   10e60:	00a107a3          	sb	a0,15(sp)
   10e64:	e9dff0ef          	jal	10d00 <i2c_prepare_transaction>
   10e68:	08050263          	beqz	a0,10eec <rover_set_motors.isra.0+0xf0>
   10e6c:	f25ff0ef          	jal	10d90 <i2c_start>
   10e70:	06050e63          	beqz	a0,10eec <rover_set_motors.isra.0+0xf0>
   10e74:	00141513          	slli	a0,s0,0x1
   10e78:	0fe57513          	andi	a0,a0,254
   10e7c:	f51ff0ef          	jal	10dcc <i2c_write_byte>
   10e80:	02051063          	bnez	a0,10ea0 <rover_set_motors.isra.0+0xa4>
   10e84:	02812403          	lw	s0,40(sp)
   10e88:	02c12083          	lw	ra,44(sp)
   10e8c:	02412483          	lw	s1,36(sp)
   10e90:	02012903          	lw	s2,32(sp)
   10e94:	01c12983          	lw	s3,28(sp)
   10e98:	03010113          	addi	sp,sp,48
   10e9c:	f0dff06f          	j	10da8 <i2c_fail_with_stop_if_possible.isra.0>
   10ea0:	00000513          	li	a0,0
   10ea4:	f29ff0ef          	jal	10dcc <i2c_write_byte>
   10ea8:	fc050ee3          	beqz	a0,10e84 <rover_set_motors.isra.0+0x88>
   10eac:	00000413          	li	s0,0
   10eb0:	00c10913          	addi	s2,sp,12
   10eb4:	00400493          	li	s1,4
   10eb8:	008907b3          	add	a5,s2,s0
   10ebc:	0007c503          	lbu	a0,0(a5)
   10ec0:	f0dff0ef          	jal	10dcc <i2c_write_byte>
   10ec4:	fc0500e3          	beqz	a0,10e84 <rover_set_motors.isra.0+0x88>
   10ec8:	00140413          	addi	s0,s0,1
   10ecc:	fe9416e3          	bne	s0,s1,10eb8 <rover_set_motors.isra.0+0xbc>
   10ed0:	02812403          	lw	s0,40(sp)
   10ed4:	02c12083          	lw	ra,44(sp)
   10ed8:	02412483          	lw	s1,36(sp)
   10edc:	02012903          	lw	s2,32(sp)
   10ee0:	01c12983          	lw	s3,28(sp)
   10ee4:	03010113          	addi	sp,sp,48
   10ee8:	eb5ff06f          	j	10d9c <i2c_stop>
   10eec:	02c12083          	lw	ra,44(sp)
   10ef0:	02812403          	lw	s0,40(sp)
   10ef4:	02412483          	lw	s1,36(sp)
   10ef8:	02012903          	lw	s2,32(sp)
   10efc:	01c12983          	lw	s3,28(sp)
   10f00:	03010113          	addi	sp,sp,48
   10f04:	00008067          	ret
   10f08:	00008067          	ret

00010f0c <rover_high_drive.isra.0>:
   10f0c:	fe010113          	addi	sp,sp,-32
   10f10:	01212823          	sw	s2,16(sp)
   10f14:	00052903          	lw	s2,0(a0)
   10f18:	00112e23          	sw	ra,28(sp)
   10f1c:	00812c23          	sw	s0,24(sp)
   10f20:	00912a23          	sw	s1,20(sp)
   10f24:	01312623          	sw	s3,12(sp)
   10f28:	0a090663          	beqz	s2,10fd4 <rover_high_drive.isra.0+0xc8>
   10f2c:	00050413          	mv	s0,a0
   10f30:	00450513          	addi	a0,a0,4
   10f34:	00060993          	mv	s3,a2
   10f38:	00058493          	mv	s1,a1
   10f3c:	ab9ff0ef          	jal	109f4 <rover_high_valid_map>
   10f40:	08050a63          	beqz	a0,10fd4 <rover_high_drive.isra.0+0xc8>
   10f44:	00048513          	mv	a0,s1
   10f48:	a91ff0ef          	jal	109d8 <rover_clamp_speed>
   10f4c:	00050493          	mv	s1,a0
   10f50:	00098513          	mv	a0,s3
   10f54:	a85ff0ef          	jal	109d8 <rover_clamp_speed>
   10f58:	01444683          	lbu	a3,20(s0)
   10f5c:	00050793          	mv	a5,a0
   10f60:	00048713          	mv	a4,s1
   10f64:	00068863          	beqz	a3,10f74 <rover_high_drive.isra.0+0x68>
   10f68:	40900733          	neg	a4,s1
   10f6c:	01871713          	slli	a4,a4,0x18
   10f70:	41875713          	srai	a4,a4,0x18
   10f74:	01544683          	lbu	a3,21(s0)
   10f78:	00068863          	beqz	a3,10f88 <rover_high_drive.isra.0+0x7c>
   10f7c:	409004b3          	neg	s1,s1
   10f80:	01849493          	slli	s1,s1,0x18
   10f84:	4184d493          	srai	s1,s1,0x18
   10f88:	01644683          	lbu	a3,22(s0)
   10f8c:	00078513          	mv	a0,a5
   10f90:	00068863          	beqz	a3,10fa0 <rover_high_drive.isra.0+0x94>
   10f94:	40f00533          	neg	a0,a5
   10f98:	01851513          	slli	a0,a0,0x18
   10f9c:	41855513          	srai	a0,a0,0x18
   10fa0:	01744683          	lbu	a3,23(s0)
   10fa4:	00068863          	beqz	a3,10fb4 <rover_high_drive.isra.0+0xa8>
   10fa8:	40f007b3          	neg	a5,a5
   10fac:	01879793          	slli	a5,a5,0x18
   10fb0:	4187d793          	srai	a5,a5,0x18
   10fb4:	00442683          	lw	a3,4(s0)
   10fb8:	00300613          	li	a2,3
   10fbc:	0ec68a63          	beq	a3,a2,110b0 <rover_high_drive.isra.0+0x1a4>
   10fc0:	02d66863          	bltu	a2,a3,10ff0 <rover_high_drive.isra.0+0xe4>
   10fc4:	00100613          	li	a2,1
   10fc8:	02c68c63          	beq	a3,a2,11000 <rover_high_drive.isra.0+0xf4>
   10fcc:	00200613          	li	a2,2
   10fd0:	0cc68663          	beq	a3,a2,1109c <rover_high_drive.isra.0+0x190>
   10fd4:	01c12083          	lw	ra,28(sp)
   10fd8:	01812403          	lw	s0,24(sp)
   10fdc:	01412483          	lw	s1,20(sp)
   10fe0:	01012903          	lw	s2,16(sp)
   10fe4:	00c12983          	lw	s3,12(sp)
   10fe8:	02010113          	addi	sp,sp,32
   10fec:	00008067          	ret
   10ff0:	00400613          	li	a2,4
   10ff4:	fec690e3          	bne	a3,a2,10fd4 <rover_high_drive.isra.0+0xc8>
   10ff8:	00000693          	li	a3,0
   10ffc:	0bc0006f          	j	110b8 <rover_high_drive.isra.0+0x1ac>
   11000:	00070593          	mv	a1,a4
   11004:	00000693          	li	a3,0
   11008:	00000713          	li	a4,0
   1100c:	00000613          	li	a2,0
   11010:	00842803          	lw	a6,8(s0)
   11014:	00300893          	li	a7,3
   11018:	0b180e63          	beq	a6,a7,110d4 <rover_high_drive.isra.0+0x1c8>
   1101c:	0b08e263          	bltu	a7,a6,110c0 <rover_high_drive.isra.0+0x1b4>
   11020:	00100893          	li	a7,1
   11024:	0b180463          	beq	a6,a7,110cc <rover_high_drive.isra.0+0x1c0>
   11028:	00200893          	li	a7,2
   1102c:	00048613          	mv	a2,s1
   11030:	fb1812e3          	bne	a6,a7,10fd4 <rover_high_drive.isra.0+0xc8>
   11034:	00c42803          	lw	a6,12(s0)
   11038:	00300893          	li	a7,3
   1103c:	0b180a63          	beq	a6,a7,110f0 <rover_high_drive.isra.0+0x1e4>
   11040:	0908ee63          	bltu	a7,a6,110dc <rover_high_drive.isra.0+0x1d0>
   11044:	00100893          	li	a7,1
   11048:	0b180063          	beq	a6,a7,110e8 <rover_high_drive.isra.0+0x1dc>
   1104c:	00200893          	li	a7,2
   11050:	00050613          	mv	a2,a0
   11054:	f91810e3          	bne	a6,a7,10fd4 <rover_high_drive.isra.0+0xc8>
   11058:	01042503          	lw	a0,16(s0)
   1105c:	00300813          	li	a6,3
   11060:	0b050663          	beq	a0,a6,1110c <rover_high_drive.isra.0+0x200>
   11064:	08a86a63          	bltu	a6,a0,110f8 <rover_high_drive.isra.0+0x1ec>
   11068:	00100813          	li	a6,1
   1106c:	09050c63          	beq	a0,a6,11104 <rover_high_drive.isra.0+0x1f8>
   11070:	00200813          	li	a6,2
   11074:	00078613          	mv	a2,a5
   11078:	f5051ee3          	bne	a0,a6,10fd4 <rover_high_drive.isra.0+0xc8>
   1107c:	01812403          	lw	s0,24(sp)
   11080:	01c12083          	lw	ra,28(sp)
   11084:	01412483          	lw	s1,20(sp)
   11088:	00c12983          	lw	s3,12(sp)
   1108c:	00090513          	mv	a0,s2
   11090:	01012903          	lw	s2,16(sp)
   11094:	02010113          	addi	sp,sp,32
   11098:	d65ff06f          	j	10dfc <rover_set_motors.isra.0>
   1109c:	00070613          	mv	a2,a4
   110a0:	00000693          	li	a3,0
   110a4:	00000713          	li	a4,0
   110a8:	00000593          	li	a1,0
   110ac:	f65ff06f          	j	11010 <rover_high_drive.isra.0+0x104>
   110b0:	00070693          	mv	a3,a4
   110b4:	00000713          	li	a4,0
   110b8:	00000613          	li	a2,0
   110bc:	fedff06f          	j	110a8 <rover_high_drive.isra.0+0x19c>
   110c0:	00400893          	li	a7,4
   110c4:	00048713          	mv	a4,s1
   110c8:	f69ff06f          	j	11030 <rover_high_drive.isra.0+0x124>
   110cc:	00048593          	mv	a1,s1
   110d0:	f65ff06f          	j	11034 <rover_high_drive.isra.0+0x128>
   110d4:	00048693          	mv	a3,s1
   110d8:	f5dff06f          	j	11034 <rover_high_drive.isra.0+0x128>
   110dc:	00400893          	li	a7,4
   110e0:	00050713          	mv	a4,a0
   110e4:	f71ff06f          	j	11054 <rover_high_drive.isra.0+0x148>
   110e8:	00050593          	mv	a1,a0
   110ec:	f6dff06f          	j	11058 <rover_high_drive.isra.0+0x14c>
   110f0:	00050693          	mv	a3,a0
   110f4:	f65ff06f          	j	11058 <rover_high_drive.isra.0+0x14c>
   110f8:	00400813          	li	a6,4
   110fc:	00078713          	mv	a4,a5
   11100:	f79ff06f          	j	11078 <rover_high_drive.isra.0+0x16c>
   11104:	00078593          	mv	a1,a5
   11108:	f75ff06f          	j	1107c <rover_high_drive.isra.0+0x170>
   1110c:	00078693          	mv	a3,a5
   11110:	f6dff06f          	j	1107c <rover_high_drive.isra.0+0x170>

00011114 <rover_high_go_straight.isra.0>:
   11114:	01950603          	lb	a2,25(a0)
   11118:	01850583          	lb	a1,24(a0)
   1111c:	df1ff06f          	j	10f0c <rover_high_drive.isra.0>

00011120 <i2c_write_burst.constprop.0>:
   11120:	ff010113          	addi	sp,sp,-16
   11124:	00812423          	sw	s0,8(sp)
   11128:	00912223          	sw	s1,4(sp)
   1112c:	00112623          	sw	ra,12(sp)
   11130:	00050413          	mv	s0,a0
   11134:	00058493          	mv	s1,a1
   11138:	bc9ff0ef          	jal	10d00 <i2c_prepare_transaction>
   1113c:	02050063          	beqz	a0,1115c <i2c_write_burst.constprop.0+0x3c>
   11140:	c51ff0ef          	jal	10d90 <i2c_start>
   11144:	00050c63          	beqz	a0,1115c <i2c_write_burst.constprop.0+0x3c>
   11148:	05200513          	li	a0,82
   1114c:	c81ff0ef          	jal	10dcc <i2c_write_byte>
   11150:	009404b3          	add	s1,s0,s1
   11154:	02051063          	bnez	a0,11174 <i2c_write_burst.constprop.0+0x54>
   11158:	c51ff0ef          	jal	10da8 <i2c_fail_with_stop_if_possible.isra.0>
   1115c:	00c12083          	lw	ra,12(sp)
   11160:	00812403          	lw	s0,8(sp)
   11164:	00412483          	lw	s1,4(sp)
   11168:	00000513          	li	a0,0
   1116c:	01010113          	addi	sp,sp,16
   11170:	00008067          	ret
   11174:	00044503          	lbu	a0,0(s0)
   11178:	c55ff0ef          	jal	10dcc <i2c_write_byte>
   1117c:	fc050ee3          	beqz	a0,11158 <i2c_write_burst.constprop.0+0x38>
   11180:	00140413          	addi	s0,s0,1
   11184:	fe9418e3          	bne	s0,s1,11174 <i2c_write_burst.constprop.0+0x54>
   11188:	00812403          	lw	s0,8(sp)
   1118c:	00c12083          	lw	ra,12(sp)
   11190:	00412483          	lw	s1,4(sp)
   11194:	01010113          	addi	sp,sp,16
   11198:	c05ff06f          	j	10d9c <i2c_stop>

0001119c <vl53l1x_write8>:
   1119c:	fe010113          	addi	sp,sp,-32
   111a0:	00a106a3          	sb	a0,13(sp)
   111a4:	00b10723          	sb	a1,14(sp)
   111a8:	00c10513          	addi	a0,sp,12
   111ac:	00300593          	li	a1,3
   111b0:	00112e23          	sw	ra,28(sp)
   111b4:	00010623          	sb	zero,12(sp)
   111b8:	f69ff0ef          	jal	11120 <i2c_write_burst.constprop.0>
   111bc:	01c12083          	lw	ra,28(sp)
   111c0:	02010113          	addi	sp,sp,32
   111c4:	00008067          	ret

000111c8 <vl53l1x_write16>:
   111c8:	fe010113          	addi	sp,sp,-32
   111cc:	0085d793          	srli	a5,a1,0x8
   111d0:	00859593          	slli	a1,a1,0x8
   111d4:	00a106a3          	sb	a0,13(sp)
   111d8:	00b787b3          	add	a5,a5,a1
   111dc:	00c10513          	addi	a0,sp,12
   111e0:	00400593          	li	a1,4
   111e4:	00112e23          	sw	ra,28(sp)
   111e8:	00010623          	sb	zero,12(sp)
   111ec:	00f11723          	sh	a5,14(sp)
   111f0:	f31ff0ef          	jal	11120 <i2c_write_burst.constprop.0>
   111f4:	01c12083          	lw	ra,28(sp)
   111f8:	02010113          	addi	sp,sp,32
   111fc:	00008067          	ret

00011200 <vl53l1x_read_multi>:
   11200:	fd010113          	addi	sp,sp,-48
   11204:	00855793          	srli	a5,a0,0x8
   11208:	00851513          	slli	a0,a0,0x8
   1120c:	01312e23          	sw	s3,28(sp)
   11210:	00a787b3          	add	a5,a5,a0
   11214:	00058993          	mv	s3,a1
   11218:	00c10513          	addi	a0,sp,12
   1121c:	00200593          	li	a1,2
   11220:	02912223          	sw	s1,36(sp)
   11224:	02112623          	sw	ra,44(sp)
   11228:	02812423          	sw	s0,40(sp)
   1122c:	03212023          	sw	s2,32(sp)
   11230:	00060493          	mv	s1,a2
   11234:	00f11623          	sh	a5,12(sp)
   11238:	ee9ff0ef          	jal	11120 <i2c_write_burst.constprop.0>
   1123c:	02051263          	bnez	a0,11260 <vl53l1x_read_multi+0x60>
   11240:	00000513          	li	a0,0
   11244:	02c12083          	lw	ra,44(sp)
   11248:	02812403          	lw	s0,40(sp)
   1124c:	02412483          	lw	s1,36(sp)
   11250:	02012903          	lw	s2,32(sp)
   11254:	01c12983          	lw	s3,28(sp)
   11258:	03010113          	addi	sp,sp,48
   1125c:	00008067          	ret
   11260:	aa1ff0ef          	jal	10d00 <i2c_prepare_transaction>
   11264:	fc050ee3          	beqz	a0,11240 <vl53l1x_read_multi+0x40>
   11268:	b29ff0ef          	jal	10d90 <i2c_start>
   1126c:	fc050ae3          	beqz	a0,11240 <vl53l1x_read_multi+0x40>
   11270:	05300513          	li	a0,83
   11274:	b59ff0ef          	jal	10dcc <i2c_write_byte>
   11278:	00000413          	li	s0,0
   1127c:	fff48913          	addi	s2,s1,-1
   11280:	00051663          	bnez	a0,1128c <vl53l1x_read_multi+0x8c>
   11284:	b25ff0ef          	jal	10da8 <i2c_fail_with_stop_if_possible.isra.0>
   11288:	fb9ff06f          	j	11240 <vl53l1x_read_multi+0x40>
   1128c:	408905b3          	sub	a1,s2,s0
   11290:	0015b593          	seqz	a1,a1
   11294:	00300513          	li	a0,3
   11298:	9c1ff0ef          	jal	10c58 <i2c_exec_cmd>
   1129c:	fe0504e3          	beqz	a0,11284 <vl53l1x_read_multi+0x84>
   112a0:	02704703          	lbu	a4,39(zero) # 27 <main-0x1008d>
   112a4:	008987b3          	add	a5,s3,s0
   112a8:	00140413          	addi	s0,s0,1
   112ac:	00e78023          	sb	a4,0(a5)
   112b0:	fc849ee3          	bne	s1,s0,1128c <vl53l1x_read_multi+0x8c>
   112b4:	ae9ff0ef          	jal	10d9c <i2c_stop>
   112b8:	f8dff06f          	j	11244 <vl53l1x_read_multi+0x44>

000112bc <vl53l1x_read16>:
   112bc:	fe010113          	addi	sp,sp,-32
   112c0:	00812c23          	sw	s0,24(sp)
   112c4:	00200613          	li	a2,2
   112c8:	00058413          	mv	s0,a1
   112cc:	00c10593          	addi	a1,sp,12
   112d0:	00112e23          	sw	ra,28(sp)
   112d4:	f2dff0ef          	jal	11200 <vl53l1x_read_multi>
   112d8:	00050c63          	beqz	a0,112f0 <vl53l1x_read16+0x34>
   112dc:	00c15783          	lhu	a5,12(sp)
   112e0:	0087d713          	srli	a4,a5,0x8
   112e4:	00879793          	slli	a5,a5,0x8
   112e8:	00f707b3          	add	a5,a4,a5
   112ec:	00f41023          	sh	a5,0(s0)
   112f0:	01c12083          	lw	ra,28(sp)
   112f4:	01812403          	lw	s0,24(sp)
   112f8:	02010113          	addi	sp,sp,32
   112fc:	00008067          	ret

00011300 <exit>:
   11300:	05d00893          	li	a7,93
   11304:	00000073          	ecall

00011308 <_start>:
   11308:	00012503          	lw	a0,0(sp)
   1130c:	00410593          	addi	a1,sp,4
   11310:	da5fe0ef          	jal	100b4 <main>
   11314:	fedff06f          	j	11300 <exit>

Disassembly of section .rodata:

00011318 <__DATA_BEGIN__-0x1014>:
   11318:	0278                	.insn	2, 0x0278
   1131a:	0001                	.insn	2, 0x0001
   1131c:	0500                	.insn	2, 0x0500
   1131e:	0001                	.insn	2, 0x0001
   11320:	0528                	.insn	2, 0x0528
   11322:	0001                	.insn	2, 0x0001
   11324:	0560                	.insn	2, 0x0560
   11326:	0001                	.insn	2, 0x0001
   11328:	05a4                	.insn	2, 0x05a4
   1132a:	0001                	.insn	2, 0x0001

Disassembly of section .comment:

00000000 <.comment>:
   0:	3a434347          	.insn	4, 0x3a434347
   4:	2820                	.insn	2, 0x2820
   6:	7241                	.insn	2, 0x7241
   8:	4c206863          	bltu	zero,sp,4d8 <main-0xfbdc>
   c:	6e69                	.insn	2, 0x6e69
   e:	7875                	.insn	2, 0x7875
  10:	5220                	.insn	2, 0x5220
  12:	7065                	.insn	2, 0x7065
  14:	7469736f          	jal	t1,9775a <__global_pointer$+0x84c2e>
  18:	6569726f          	jal	tp,9766e <__global_pointer$+0x84b42>
  1c:	31202973          	.insn	4, 0x31202973
  20:	2e35                	.insn	2, 0x2e35
  22:	2e32                	.insn	2, 0x2e32
  24:	0030                	.insn	2, 0x0030

Disassembly of section .riscv.attributes:

00000000 <.riscv.attributes>:
   0:	1b41                	.insn	2, 0x1b41
   2:	0000                	.insn	2, 0x0000
   4:	7200                	.insn	2, 0x7200
   6:	7369                	.insn	2, 0x7369
   8:	01007663          	bgeu	zero,a6,14 <main-0x100a0>
   c:	0011                	.insn	2, 0x0011
   e:	0000                	.insn	2, 0x0000
  10:	1004                	.insn	2, 0x1004
  12:	7205                	.insn	2, 0x7205
  14:	3376                	.insn	2, 0x3376
  16:	6932                	.insn	2, 0x6932
  18:	7032                	.insn	2, 0x7032
  1a:	0031                	.insn	2, 0x0031
